target datalayout = "e-m:e-p270:32:32-p271:32:32-p272:64:64-i64:64-i128:128-f80:128-n8:16:32:64-S128"
target triple = "x86_64-pc-linux-gnu"

; Function Attrs: nounwind uwtable
define internal i32 @vsse8_c(ptr noundef %0, ptr noundef %1, ptr noundef %2, i64 noundef %3, i32 noundef %4) #2 {
  %6 = alloca ptr, align 8
  %7 = alloca ptr, align 8
  %8 = alloca ptr, align 8
  %9 = alloca i64, align 8
  %10 = alloca i32, align 4
  %11 = alloca i32, align 4
  %12 = alloca i32, align 4
  %13 = alloca i32, align 4
  store ptr %0, ptr %6, align 8, !tbaa !22
  store ptr %1, ptr %7, align 8, !tbaa !24
  store ptr %2, ptr %8, align 8, !tbaa !24
  store i64 %3, ptr %9, align 8, !tbaa !26
  store i32 %4, ptr %10, align 4, !tbaa !11
  call void @llvm.lifetime.start.p0(i64 4, ptr %11) #9
  store i32 0, ptr %11, align 4, !tbaa !11
  call void @llvm.lifetime.start.p0(i64 4, ptr %12) #9
  call void @llvm.lifetime.start.p0(i64 4, ptr %13) #9
  store i32 1, ptr %13, align 4, !tbaa !11
  br label %14

14:                                               ; preds = %98, %5
  %15 = load i32, ptr %13, align 4, !tbaa !11
  %16 = load i32, ptr %10, align 4, !tbaa !11
  %17 = icmp slt i32 %15, %16
  br i1 %17, label %18, label %101

18:                                               ; preds = %14
  store i32 0, ptr %12, align 4, !tbaa !11
  br label %19

19:                                               ; preds = %88, %18
  %20 = load i32, ptr %12, align 4, !tbaa !11
  %21 = icmp slt i32 %20, 8
  br i1 %21, label %22, label %91

22:                                               ; preds = %19
  %23 = load ptr, ptr %7, align 8, !tbaa !24
  %24 = load i32, ptr %12, align 4, !tbaa !11
  %25 = sext i32 %24 to i64
  %26 = getelementptr inbounds i8, ptr %23, i64 %25
  %27 = load i8, ptr %26, align 1, !tbaa !36
  %28 = zext i8 %27 to i32
  %29 = load ptr, ptr %8, align 8, !tbaa !24
  %30 = load i32, ptr %12, align 4, !tbaa !11
  %31 = sext i32 %30 to i64
  %32 = getelementptr inbounds i8, ptr %29, i64 %31
  %33 = load i8, ptr %32, align 1, !tbaa !36
  %34 = zext i8 %33 to i32
  %35 = sub nsw i32 %28, %34
  %36 = load ptr, ptr %7, align 8, !tbaa !24
  %37 = load i32, ptr %12, align 4, !tbaa !11
  %38 = sext i32 %37 to i64
  %39 = load i64, ptr %9, align 8, !tbaa !26
  %40 = add nsw i64 %38, %39
  %41 = getelementptr inbounds i8, ptr %36, i64 %40
  %42 = load i8, ptr %41, align 1, !tbaa !36
  %43 = zext i8 %42 to i32
  %44 = sub nsw i32 %35, %43
  %45 = load ptr, ptr %8, align 8, !tbaa !24
  %46 = load i32, ptr %12, align 4, !tbaa !11
  %47 = sext i32 %46 to i64
  %48 = load i64, ptr %9, align 8, !tbaa !26
  %49 = add nsw i64 %47, %48
  %50 = getelementptr inbounds i8, ptr %45, i64 %49
  %51 = load i8, ptr %50, align 1, !tbaa !36
  %52 = zext i8 %51 to i32
  %53 = add nsw i32 %44, %52
  %54 = load ptr, ptr %7, align 8, !tbaa !24
  %55 = load i32, ptr %12, align 4, !tbaa !11
  %56 = sext i32 %55 to i64
  %57 = getelementptr inbounds i8, ptr %54, i64 %56
  %58 = load i8, ptr %57, align 1, !tbaa !36
  %59 = zext i8 %58 to i32
  %60 = load ptr, ptr %8, align 8, !tbaa !24
  %61 = load i32, ptr %12, align 4, !tbaa !11
  %62 = sext i32 %61 to i64
  %63 = getelementptr inbounds i8, ptr %60, i64 %62
  %64 = load i8, ptr %63, align 1, !tbaa !36
  %65 = zext i8 %64 to i32
  %66 = sub nsw i32 %59, %65
  %67 = load ptr, ptr %7, align 8, !tbaa !24
  %68 = load i32, ptr %12, align 4, !tbaa !11
  %69 = sext i32 %68 to i64
  %70 = load i64, ptr %9, align 8, !tbaa !26
  %71 = add nsw i64 %69, %70
  %72 = getelementptr inbounds i8, ptr %67, i64 %71
  %73 = load i8, ptr %72, align 1, !tbaa !36
  %74 = zext i8 %73 to i32
  %75 = sub nsw i32 %66, %74
  %76 = load ptr, ptr %8, align 8, !tbaa !24
  %77 = load i32, ptr %12, align 4, !tbaa !11
  %78 = sext i32 %77 to i64
  %79 = load i64, ptr %9, align 8, !tbaa !26
  %80 = add nsw i64 %78, %79
  %81 = getelementptr inbounds i8, ptr %76, i64 %80
  %82 = load i8, ptr %81, align 1, !tbaa !36
  %83 = zext i8 %82 to i32
  %84 = add nsw i32 %75, %83
  %85 = mul nsw i32 %53, %84
  %86 = load i32, ptr %11, align 4, !tbaa !11
  %87 = add nsw i32 %86, %85
  store i32 %87, ptr %11, align 4, !tbaa !11
  br label %88

88:                                               ; preds = %22
  %89 = load i32, ptr %12, align 4, !tbaa !11
  %90 = add nsw i32 %89, 1
  store i32 %90, ptr %12, align 4, !tbaa !11
  br label %19, !llvm.loop !113

91:                                               ; preds = %19
  %92 = load i64, ptr %9, align 8, !tbaa !26
  %93 = load ptr, ptr %7, align 8, !tbaa !24
  %94 = getelementptr inbounds i8, ptr %93, i64 %92
  store ptr %94, ptr %7, align 8, !tbaa !24
  %95 = load i64, ptr %9, align 8, !tbaa !26
  %96 = load ptr, ptr %8, align 8, !tbaa !24
  %97 = getelementptr inbounds i8, ptr %96, i64 %95
  store ptr %97, ptr %8, align 8, !tbaa !24
  br label %98

98:                                               ; preds = %91
  %99 = load i32, ptr %13, align 4, !tbaa !11
  %100 = add nsw i32 %99, 1
  store i32 %100, ptr %13, align 4, !tbaa !11
  br label %14, !llvm.loop !114

101:                                              ; preds = %14
  %102 = load i32, ptr %11, align 4, !tbaa !11
  call void @llvm.lifetime.end.p0(i64 4, ptr %13) #9
  call void @llvm.lifetime.end.p0(i64 4, ptr %12) #9
  call void @llvm.lifetime.end.p0(i64 4, ptr %11) #9
  ret i32 %102
}