; Function Attrs: nofree norecurse nosync nounwind memory(argmem: read) uwtable
define internal i32 @vsse8_c(ptr readnone captures(none) %0, ptr noundef readonly captures(none) %1, ptr noundef readonly captures(none) %2, i64 noundef %3, i32 noundef %4) #5 {
  %6 = icmp sgt i32 %4, 1
  br i1 %6, label %.preheader, label %._crit_edge

.preheader:                                       ; preds = %5, %26
  %.041 = phi i32 [ %29, %26 ], [ 1, %5 ]
  %.03140 = phi i32 [ %25, %26 ], [ 0, %5 ]
  %.03239 = phi ptr [ %27, %26 ], [ %1, %5 ]
  %.03338 = phi ptr [ %28, %26 ], [ %2, %5 ]
  br label %7

7:                                                ; preds = %.preheader, %7
  %indvars.iv = phi i64 [ 0, %.preheader ], [ %indvars.iv.next, %7 ]
  %.136 = phi i32 [ %.03140, %.preheader ], [ %25, %7 ]
  %8 = getelementptr inbounds nuw i8, ptr %.03239, i64 %indvars.iv
  %9 = load i8, ptr %8, align 1, !tbaa !20
  %10 = zext i8 %9 to i32
  %11 = getelementptr inbounds nuw i8, ptr %.03338, i64 %indvars.iv
  %12 = load i8, ptr %11, align 1, !tbaa !20
  %13 = zext i8 %12 to i32
  %14 = add nsw i64 %3, %indvars.iv
  %15 = getelementptr inbounds i8, ptr %.03239, i64 %14
  %16 = load i8, ptr %15, align 1, !tbaa !20
  %17 = zext i8 %16 to i32
  %18 = getelementptr inbounds i8, ptr %.03338, i64 %14
  %19 = load i8, ptr %18, align 1, !tbaa !20
  %20 = zext i8 %19 to i32
  %21 = add nuw nsw i32 %13, %17
  %22 = sub nsw i32 %10, %21
  %23 = add nsw i32 %22, %20
  %24 = mul nsw i32 %23, %23
  %25 = add nsw i32 %24, %.136
  %indvars.iv.next = add nuw nsw i64 %indvars.iv, 1
  %exitcond.not = icmp eq i64 %indvars.iv.next, 8
  br i1 %exitcond.not, label %26, label %7, !llvm.loop !100

26:                                               ; preds = %7
  %27 = getelementptr inbounds i8, ptr %.03239, i64 %3
  %28 = getelementptr inbounds i8, ptr %.03338, i64 %3
  %29 = add nuw nsw i32 %.041, 1
  %exitcond43.not = icmp eq i32 %29, %4
  br i1 %exitcond43.not, label %._crit_edge, label %.preheader, !llvm.loop !101

._crit_edge:                                      ; preds = %26, %5
  %.031.lcssa = phi i32 [ 0, %5 ], [ %25, %26 ]
  ret i32 %.031.lcssa
}